target datalayout = "e-m:e-p270:32:32-p271:32:32-p272:64:64-i64:64-i128:128-f80:128-n8:16:32:64-S128"
target triple = "x86_64-pc-linux-gnu"

; Function Attrs: nounwind uwtable
define i32 @QRsol(i32 noundef %0, ptr noundef %1, ptr noundef %2, ptr noundef %3) #0 {
  %5 = alloca i32, align 4
  %6 = alloca ptr, align 8
  %7 = alloca ptr, align 8
  %8 = alloca ptr, align 8
  %9 = alloca double, align 8
  %10 = alloca double, align 8
  %11 = alloca double, align 8
  %12 = alloca double, align 8
  %13 = alloca i32, align 4
  %14 = alloca i32, align 4
  %15 = alloca i32, align 4
  %16 = alloca i32, align 4
  store i32 %0, ptr %5, align 4, !tbaa !10
  store ptr %1, ptr %6, align 8, !tbaa !8
  store ptr %2, ptr %7, align 8, !tbaa !12
  store ptr %3, ptr %8, align 8, !tbaa !12
  call void @llvm.lifetime.start.p0(i64 8, ptr %9) #4
  call void @llvm.lifetime.start.p0(i64 8, ptr %10) #4
  call void @llvm.lifetime.start.p0(i64 8, ptr %11) #4
  call void @llvm.lifetime.start.p0(i64 8, ptr %12) #4
  call void @llvm.lifetime.start.p0(i64 4, ptr %13) #4
  call void @llvm.lifetime.start.p0(i64 4, ptr %14) #4
  call void @llvm.lifetime.start.p0(i64 4, ptr %15) #4
  call void @llvm.lifetime.start.p0(i64 4, ptr %16) #4
  store i32 0, ptr %16, align 4, !tbaa !10
  store i32 0, ptr %14, align 4, !tbaa !10
  br label %17

17:                                               ; preds = %68, %4
  %18 = load i32, ptr %14, align 4, !tbaa !10
  %19 = load i32, ptr %5, align 4, !tbaa !10
  %20 = icmp slt i32 %18, %19
  br i1 %20, label %21, label %71

21:                                               ; preds = %17
  %22 = load i32, ptr %14, align 4, !tbaa !10
  %23 = mul nsw i32 2, %22
  store i32 %23, ptr %15, align 4, !tbaa !10
  %24 = load ptr, ptr %7, align 8, !tbaa !12
  %25 = load i32, ptr %15, align 4, !tbaa !10
  %26 = sext i32 %25 to i64
  %27 = getelementptr inbounds double, ptr %24, i64 %26
  %28 = load double, ptr %27, align 8, !tbaa !16
  store double %28, ptr %9, align 8, !tbaa !16
  %29 = load ptr, ptr %7, align 8, !tbaa !12
  %30 = load i32, ptr %15, align 4, !tbaa !10
  %31 = add nsw i32 %30, 1
  %32 = sext i32 %31 to i64
  %33 = getelementptr inbounds double, ptr %29, i64 %32
  %34 = load double, ptr %33, align 8, !tbaa !16
  store double %34, ptr %10, align 8, !tbaa !16
  %35 = load ptr, ptr %8, align 8, !tbaa !12
  %36 = load i32, ptr %14, align 4, !tbaa !10
  %37 = sext i32 %36 to i64
  %38 = getelementptr inbounds double, ptr %35, i64 %37
  %39 = load double, ptr %38, align 8, !tbaa !16
  store double %39, ptr %11, align 8, !tbaa !16
  %40 = load ptr, ptr %8, align 8, !tbaa !12
  %41 = load i32, ptr %14, align 4, !tbaa !10
  %42 = add nsw i32 %41, 1
  %43 = sext i32 %42 to i64
  %44 = getelementptr inbounds double, ptr %40, i64 %43
  %45 = load double, ptr %44, align 8, !tbaa !16
  store double %45, ptr %12, align 8, !tbaa !16
  %46 = load double, ptr %9, align 8, !tbaa !16
  %47 = load double, ptr %11, align 8, !tbaa !16
  %48 = load double, ptr %10, align 8, !tbaa !16
  %49 = load double, ptr %12, align 8, !tbaa !16
  %50 = fmul double %48, %49
  %51 = fneg double %50
  %52 = call double @llvm.fmuladd.f64(double %46, double %47, double %51)
  %53 = load ptr, ptr %8, align 8, !tbaa !12
  %54 = load i32, ptr %14, align 4, !tbaa !10
  %55 = sext i32 %54 to i64
  %56 = getelementptr inbounds double, ptr %53, i64 %55
  store double %52, ptr %56, align 8, !tbaa !16
  %57 = load double, ptr %10, align 8, !tbaa !16
  %58 = load double, ptr %11, align 8, !tbaa !16
  %59 = load double, ptr %9, align 8, !tbaa !16
  %60 = load double, ptr %12, align 8, !tbaa !16
  %61 = fmul double %59, %60
  %62 = call double @llvm.fmuladd.f64(double %57, double %58, double %61)
  %63 = load ptr, ptr %8, align 8, !tbaa !12
  %64 = load i32, ptr %14, align 4, !tbaa !10
  %65 = add nsw i32 %64, 1
  %66 = sext i32 %65 to i64
  %67 = getelementptr inbounds double, ptr %63, i64 %66
  store double %62, ptr %67, align 8, !tbaa !16
  br label %68

68:                                               ; preds = %21
  %69 = load i32, ptr %14, align 4, !tbaa !10
  %70 = add nsw i32 %69, 1
  store i32 %70, ptr %14, align 4, !tbaa !10
  br label %17, !llvm.loop !28

71:                                               ; preds = %17
  %72 = load i32, ptr %5, align 4, !tbaa !10
  %73 = sub nsw i32 %72, 1
  store i32 %73, ptr %14, align 4, !tbaa !10
  br label %74

74:                                               ; preds = %137, %71
  %75 = load i32, ptr %14, align 4, !tbaa !10
  %76 = icmp sge i32 %75, 0
  br i1 %76, label %77, label %140

77:                                               ; preds = %74
  %78 = load ptr, ptr %6, align 8, !tbaa !8
  %79 = load i32, ptr %14, align 4, !tbaa !10
  %80 = sext i32 %79 to i64
  %81 = getelementptr inbounds ptr, ptr %78, i64 %80
  %82 = load ptr, ptr %81, align 8, !tbaa !12
  %83 = load i32, ptr %14, align 4, !tbaa !10
  %84 = sext i32 %83 to i64
  %85 = getelementptr inbounds double, ptr %82, i64 %84
  %86 = load double, ptr %85, align 8, !tbaa !16
  %87 = fcmp oeq double %86, 0.000000e+00
  br i1 %87, label %88, label %91

88:                                               ; preds = %77
  %89 = load i32, ptr %14, align 4, !tbaa !10
  %90 = add nsw i32 %89, 1
  store i32 %90, ptr %16, align 4, !tbaa !10
  br label %140

91:                                               ; preds = %77
  %92 = load ptr, ptr %6, align 8, !tbaa !8
  %93 = load i32, ptr %14, align 4, !tbaa !10
  %94 = sext i32 %93 to i64
  %95 = getelementptr inbounds ptr, ptr %92, i64 %94
  %96 = load ptr, ptr %95, align 8, !tbaa !12
  %97 = load i32, ptr %14, align 4, !tbaa !10
  %98 = sext i32 %97 to i64
  %99 = getelementptr inbounds double, ptr %96, i64 %98
  %100 = load double, ptr %99, align 8, !tbaa !16
  %101 = load ptr, ptr %8, align 8, !tbaa !12
  %102 = load i32, ptr %14, align 4, !tbaa !10
  %103 = sext i32 %102 to i64
  %104 = getelementptr inbounds double, ptr %101, i64 %103
  %105 = load double, ptr %104, align 8, !tbaa !16
  %106 = fdiv double %105, %100
  store double %106, ptr %104, align 8, !tbaa !16
  store i32 0, ptr %13, align 4, !tbaa !10
  br label %107

107:                                              ; preds = %133, %91
  %108 = load i32, ptr %13, align 4, !tbaa !10
  %109 = load i32, ptr %14, align 4, !tbaa !10
  %110 = icmp slt i32 %108, %109
  br i1 %110, label %111, label %136

111:                                              ; preds = %107
  %112 = load ptr, ptr %8, align 8, !tbaa !12
  %113 = load i32, ptr %14, align 4, !tbaa !10
  %114 = sext i32 %113 to i64
  %115 = getelementptr inbounds double, ptr %112, i64 %114
  %116 = load double, ptr %115, align 8, !tbaa !16
  %117 = load ptr, ptr %6, align 8, !tbaa !8
  %118 = load i32, ptr %13, align 4, !tbaa !10
  %119 = sext i32 %118 to i64
  %120 = getelementptr inbounds ptr, ptr %117, i64 %119
  %121 = load ptr, ptr %120, align 8, !tbaa !12
  %122 = load i32, ptr %14, align 4, !tbaa !10
  %123 = sext i32 %122 to i64
  %124 = getelementptr inbounds double, ptr %121, i64 %123
  %125 = load double, ptr %124, align 8, !tbaa !16
  %126 = load ptr, ptr %8, align 8, !tbaa !12
  %127 = load i32, ptr %13, align 4, !tbaa !10
  %128 = sext i32 %127 to i64
  %129 = getelementptr inbounds double, ptr %126, i64 %128
  %130 = load double, ptr %129, align 8, !tbaa !16
  %131 = fneg double %116
  %132 = call double @llvm.fmuladd.f64(double %131, double %125, double %130)
  store double %132, ptr %129, align 8, !tbaa !16
  br label %133

133:                                              ; preds = %111
  %134 = load i32, ptr %13, align 4, !tbaa !10
  %135 = add nsw i32 %134, 1
  store i32 %135, ptr %13, align 4, !tbaa !10
  br label %107, !llvm.loop !29

136:                                              ; preds = %107
  br label %137

137:                                              ; preds = %136
  %138 = load i32, ptr %14, align 4, !tbaa !10
  %139 = add nsw i32 %138, -1
  store i32 %139, ptr %14, align 4, !tbaa !10
  br label %74, !llvm.loop !30

140:                                              ; preds = %88, %74
  %141 = load i32, ptr %16, align 4, !tbaa !10
  call void @llvm.lifetime.end.p0(i64 4, ptr %16) #4
  call void @llvm.lifetime.end.p0(i64 4, ptr %15) #4
  call void @llvm.lifetime.end.p0(i64 4, ptr %14) #4
  call void @llvm.lifetime.end.p0(i64 4, ptr %13) #4
  call void @llvm.lifetime.end.p0(i64 8, ptr %12) #4
  call void @llvm.lifetime.end.p0(i64 8, ptr %11) #4
  call void @llvm.lifetime.end.p0(i64 8, ptr %10) #4
  call void @llvm.lifetime.end.p0(i64 8, ptr %9) #4
  ret i32 %141
}