; Function Attrs: nofree norecurse nosync nounwind memory(read, argmem: readwrite, inaccessiblemem: none) uwtable
define range(i32 0, -2147483648) i32 @QRsol(i32 noundef %0, ptr noundef readonly captures(none) %1, ptr noundef readonly captures(none) %2, ptr noundef captures(none) %3) local_unnamed_addr #3 {
  %5 = icmp sgt i32 %0, 0
  br i1 %5, label %.lr.ph.preheader, label %._crit_edge

.lr.ph.preheader:                                 ; preds = %4
  %wide.trip.count = zext nneg i32 %0 to i64
  %.pre = load double, ptr %3, align 8, !tbaa !10
  br label %.lr.ph

.lr.ph56.preheader:                               ; preds = %.lr.ph
  %6 = zext nneg i32 %0 to i64
  br label %.lr.ph56

.lr.ph:                                           ; preds = %.lr.ph.preheader, %.lr.ph
  %7 = phi double [ %.pre, %.lr.ph.preheader ], [ %21, %.lr.ph ]
  %indvars.iv = phi i64 [ 0, %.lr.ph.preheader ], [ %indvars.iv.next, %.lr.ph ]
  %8 = shl nuw nsw i64 %indvars.iv, 1
  %9 = getelementptr inbounds nuw double, ptr %2, i64 %8
  %10 = load double, ptr %9, align 8, !tbaa !10
  %11 = or disjoint i64 %8, 1
  %12 = getelementptr inbounds nuw double, ptr %2, i64 %11
  %13 = load double, ptr %12, align 8, !tbaa !10
  %14 = getelementptr inbounds nuw double, ptr %3, i64 %indvars.iv
  %indvars.iv.next = add nuw nsw i64 %indvars.iv, 1
  %15 = getelementptr inbounds nuw double, ptr %3, i64 %indvars.iv.next
  %16 = load double, ptr %15, align 8, !tbaa !10
  %17 = fneg double %16
  %18 = fmul double %13, %17
  %19 = tail call double @llvm.fmuladd.f64(double %10, double %7, double %18)
  store double %19, ptr %14, align 8, !tbaa !10
  %20 = fmul double %10, %16
  %21 = tail call double @llvm.fmuladd.f64(double %13, double %7, double %20)
  store double %21, ptr %15, align 8, !tbaa !10
  %exitcond.not = icmp eq i64 %indvars.iv.next, %wide.trip.count
  br i1 %exitcond.not, label %.lr.ph56.preheader, label %.lr.ph, !llvm.loop !22

.loopexit:                                        ; preds = %.lr.ph52
  %22 = icmp sgt i64 %indvars.iv63, 1
  br i1 %22, label %.lr.ph56, label %._crit_edge, !llvm.loop !23

.lr.ph56:                                         ; preds = %.lr.ph56.preheader, %.loopexit
  %indvars.iv63 = phi i64 [ %6, %.lr.ph56.preheader ], [ %indvars.iv.next64, %.loopexit ]
  %indvars.iv.next64 = add nsw i64 %indvars.iv63, -1
  %23 = getelementptr inbounds nuw ptr, ptr %1, i64 %indvars.iv.next64
  %24 = load ptr, ptr %23, align 8, !tbaa !8
  %25 = getelementptr inbounds nuw double, ptr %24, i64 %indvars.iv.next64
  %26 = load double, ptr %25, align 8, !tbaa !10
  %27 = fcmp oeq double %26, 0.000000e+00
  br i1 %27, label %._crit_edge.loopexit.split.loop.exit66, label %28

28:                                               ; preds = %.lr.ph56
  %29 = getelementptr inbounds nuw double, ptr %3, i64 %indvars.iv.next64
  %30 = load double, ptr %29, align 8, !tbaa !10
  %31 = fdiv double %30, %26
  store double %31, ptr %29, align 8, !tbaa !10
  %32 = icmp samesign ugt i64 %indvars.iv63, 1
  br i1 %32, label %.lr.ph52, label %._crit_edge

.lr.ph52:                                         ; preds = %28, %.lr.ph52
  %indvars.iv60 = phi i64 [ %indvars.iv.next61, %.lr.ph52 ], [ 0, %28 ]
  %33 = load double, ptr %29, align 8, !tbaa !10
  %34 = getelementptr inbounds nuw ptr, ptr %1, i64 %indvars.iv60
  %35 = load ptr, ptr %34, align 8, !tbaa !8
  %36 = getelementptr inbounds nuw double, ptr %35, i64 %indvars.iv.next64
  %37 = load double, ptr %36, align 8, !tbaa !10
  %38 = getelementptr inbounds nuw double, ptr %3, i64 %indvars.iv60
  %39 = load double, ptr %38, align 8, !tbaa !10
  %40 = fneg double %33
  %41 = tail call double @llvm.fmuladd.f64(double %40, double %37, double %39)
  store double %41, ptr %38, align 8, !tbaa !10
  %indvars.iv.next61 = add nuw nsw i64 %indvars.iv60, 1
  %42 = icmp slt i64 %indvars.iv.next61, %indvars.iv.next64
  br i1 %42, label %.lr.ph52, label %.loopexit, !llvm.loop !24

._crit_edge.loopexit.split.loop.exit66:           ; preds = %.lr.ph56
  %43 = trunc nuw nsw i64 %indvars.iv63 to i32
  br label %._crit_edge

._crit_edge:                                      ; preds = %28, %.loopexit, %._crit_edge.loopexit.split.loop.exit66, %4
  %.0 = phi i32 [ 0, %4 ], [ %43, %._crit_edge.loopexit.split.loop.exit66 ], [ 0, %.loopexit ], [ 0, %28 ]
  ret i32 %.0
}